target datalayout = "e-m:e-p270:32:32-p271:32:32-p272:64:64-i64:64-i128:128-f80:128-n8:16:32:64-S128"
target triple = "x86_64-pc-linux-gnu"

%struct.__va_list_tag = type { i32, i32, ptr, ptr }

@stderr = external global ptr, align 8
@.str = private unnamed_addr constant [42 x i8] c"Parameter %d to routine %s was incorrect\0A\00", align 1

; Function Attrs: nounwind uwtable
define void @cblas_xerbla(i32 noundef %0, ptr noundef %1, ptr noundef %2, ...) #0 {
  %4 = alloca i32, align 4
  %5 = alloca ptr, align 8
  %6 = alloca ptr, align 8
  %7 = alloca [1 x %struct.__va_list_tag], align 16
  store i32 %0, ptr %4, align 4, !tbaa !3
  store ptr %1, ptr %5, align 8, !tbaa !7
  store ptr %2, ptr %6, align 8, !tbaa !7
  call void @llvm.lifetime.start.p0(i64 24, ptr %7) #5
  %8 = getelementptr inbounds [1 x %struct.__va_list_tag], ptr %7, i64 0, i64 0
  call void @llvm.va_start.p0(ptr %8)
  %9 = load i32, ptr %4, align 4, !tbaa !3
  %10 = icmp ne i32 %9, 0
  br i1 %10, label %11, label %16

11:                                               ; preds = %3
  %12 = load ptr, ptr @stderr, align 8, !tbaa !10
  %13 = load i32, ptr %4, align 4, !tbaa !3
  %14 = load ptr, ptr %5, align 8, !tbaa !7
  %15 = call i32 (ptr, ptr, ...) @fprintf(ptr noundef %12, ptr noundef @.str, i32 noundef %13, ptr noundef %14) #5
  br label %16

16:                                               ; preds = %11, %3
  %17 = load ptr, ptr @stderr, align 8, !tbaa !10
  %18 = load ptr, ptr %6, align 8, !tbaa !7
  %19 = getelementptr inbounds [1 x %struct.__va_list_tag], ptr %7, i64 0, i64 0
  %20 = call i32 @vfprintf(ptr noundef %17, ptr noundef %18, ptr noundef %19) #5
  %21 = getelementptr inbounds [1 x %struct.__va_list_tag], ptr %7, i64 0, i64 0
  call void @llvm.va_end.p0(ptr %21)
  call void @exit(i32 noundef -1) #6
  unreachable
}

; Function Attrs: nocallback nofree nosync nounwind willreturn memory(argmem: readwrite)
declare void @llvm.lifetime.start.p0(i64 immarg, ptr captures(none)) #1

; Function Attrs: nocallback nofree nosync nounwind willreturn
declare void @llvm.va_start.p0(ptr) #2

; Function Attrs: nounwind
declare i32 @fprintf(ptr noundef, ptr noundef, ...) #3

; Function Attrs: nounwind
declare i32 @vfprintf(ptr noundef, ptr noundef, ptr noundef) #3

; Function Attrs: nocallback nofree nosync nounwind willreturn
declare void @llvm.va_end.p0(ptr) #2

; Function Attrs: noreturn nounwind
declare void @exit(i32 noundef) #4


!llvm.module.flags = !{!0, !1, !2}

!0 = !{i32 1, !"wchar_size", i32 4}
!1 = !{i32 8, !"PIC Level", i32 2}
!2 = !{i32 7, !"uwtable", i32 2}
!3 = !{!4, !4, i64 0}
!4 = !{!"int", !5, i64 0}
!5 = !{!"omnipotent char", !6, i64 0}
!6 = !{!"Simple C/C++ TBAA"}
!7 = !{!8, !8, i64 0}
!8 = !{!"p1 omnipotent char", !9, i64 0}
!9 = !{!"any pointer", !5, i64 0}
!10 = !{!11, !11, i64 0}
!11 = !{!"p1 _ZTS8_IO_FILE", !9, i64 0}
