; ModuleID = 'bench/openblas/original/cblas_xerbla.ll'
source_filename = "bench/openblas/original/cblas_xerbla.ll"
target datalayout = "e-m:e-p270:32:32-p271:32:32-p272:64:64-i64:64-i128:128-f80:128-n8:16:32:64-S128"
target triple = "x86_64-pc-linux-gnu"

%struct.__va_list_tag = type { i32, i32, ptr, ptr }

@stderr = external local_unnamed_addr global ptr, align 8
@.str = private unnamed_addr constant [42 x i8] c"Parameter %d to routine %s was incorrect\0A\00", align 1

; Function Attrs: cold nofree noreturn nounwind uwtable
define void @cblas_xerbla(i32 noundef %0, ptr noundef %1, ptr noundef readonly captures(none) %2, ...) local_unnamed_addr #0 {
  %4 = alloca [1 x %struct.__va_list_tag], align 16
  call void @llvm.lifetime.start.p0(i64 24, ptr nonnull %4) #5
  call void @llvm.va_start.p0(ptr nonnull %4)
  %.not = icmp eq i32 %0, 0
  br i1 %.not, label %8, label %5

5:                                                ; preds = %3
  %6 = load ptr, ptr @stderr, align 8, !tbaa !3
  %7 = call i32 (ptr, ptr, ...) @fprintf(ptr noundef %6, ptr noundef nonnull @.str, i32 noundef %0, ptr noundef %1) #6
  br label %8

8:                                                ; preds = %5, %3
  %9 = load ptr, ptr @stderr, align 8, !tbaa !3
  %10 = call i32 @vfprintf(ptr noundef %9, ptr noundef %2, ptr noundef nonnull %4) #6
  call void @llvm.va_end.p0(ptr nonnull %4)
  call void @exit(i32 noundef -1) #7
  unreachable
}

; Function Attrs: mustprogress nocallback nofree nosync nounwind willreturn memory(argmem: readwrite)
declare void @llvm.lifetime.start.p0(i64 immarg, ptr captures(none)) #1

; Function Attrs: mustprogress nocallback nofree nosync nounwind willreturn
declare void @llvm.va_start.p0(ptr) #2

; Function Attrs: nofree nounwind
declare noundef i32 @fprintf(ptr noundef captures(none), ptr noundef readonly captures(none), ...) local_unnamed_addr #3

; Function Attrs: nofree nounwind
declare noundef i32 @vfprintf(ptr noundef captures(none), ptr noundef readonly captures(none), ptr noundef) local_unnamed_addr #3

; Function Attrs: mustprogress nocallback nofree nosync nounwind willreturn
declare void @llvm.va_end.p0(ptr) #2

; Function Attrs: nofree noreturn nounwind
declare void @exit(i32 noundef) local_unnamed_addr #4


!llvm.module.flags = !{!0, !1, !2}

!0 = !{i32 1, !"wchar_size", i32 4}
!1 = !{i32 8, !"PIC Level", i32 2}
!2 = !{i32 7, !"uwtable", i32 2}
!3 = !{!4, !4, i64 0}
!4 = !{!"p1 _ZTS8_IO_FILE", !5, i64 0}
!5 = !{!"any pointer", !6, i64 0}
!6 = !{!"omnipotent char", !7, i64 0}
!7 = !{!"Simple C/C++ TBAA"}
